; Function Attrs: mustprogress nofree norecurse nosync nounwind willreturn memory(read, inaccessiblemem: none) uwtable
define noundef i32 @_ZNK3gmx8internal23AnalysisDataStorageImpl22computeStorageLocationEi(ptr nocapture noundef nonnull readonly align 8 dereferenceable(92) %0, i32 noundef %1) local_unnamed_addr #4 align 2 {
  %3 = getelementptr inbounds i8, ptr %0, i64 24
  %4 = getelementptr inbounds i8, ptr %0, i64 48
  %5 = load i64, ptr %4, align 8
  %6 = load ptr, ptr %3, align 8
  %7 = getelementptr inbounds %"class.std::unique_ptr.7", ptr %6, i64 %5
  %8 = load ptr, ptr %7, align 8
  %9 = getelementptr inbounds i8, ptr %8, i64 8
  %10 = load i32, ptr %9, align 4
  %11 = icmp sle i32 %10, %1
  %12 = getelementptr inbounds i8, ptr %0, i64 88
  %13 = load i32, ptr %12, align 8
  %.not = icmp sgt i32 %13, %1
  %or.cond = select i1 %11, i1 %.not, i1 false
  br i1 %or.cond, label %14, label %24

14:                                               ; preds = %2
  %15 = sext i32 %1 to i64
  %16 = getelementptr inbounds i8, ptr %0, i64 32
  %17 = load ptr, ptr %16, align 8
  %18 = ptrtoint ptr %17 to i64
  %19 = ptrtoint ptr %6 to i64
  %20 = sub i64 %18, %19
  %21 = ashr exact i64 %20, 3
  %22 = urem i64 %15, %21
  %23 = trunc i64 %22 to i32
  br label %24

24:                                               ; preds = %2, %14
  %.0 = phi i32 [ %23, %14 ], [ -1, %2 ]
  ret i32 %.0
}